; Function Attrs: mustprogress nofree norecurse nosync nounwind willreturn memory(argmem: readwrite) uwtable
define noundef i32 @_ZNK6icu_778Collator32internalGetShortDefinitionStringEPKcPciR10UErrorCode(ptr nonnull readnone align 8 captures(none) %0, ptr readnone captures(none) %1, ptr readnone captures(none) %2, i32 %3, ptr noundef nonnull align 4 captures(none) dereferenceable(4) %4) unnamed_addr #8 align 2 {
  %6 = load i32, ptr %4, align 4, !tbaa !6
  %7 = icmp sgt i32 %6, 0
  br i1 %7, label %9, label %8

8:                                                ; preds = %5
  store i32 16, ptr %4, align 4, !tbaa !6
  br label %9

9:                                                ; preds = %8, %5
  ret i32 0
}